target datalayout = "e-m:e-p270:32:32-p271:32:32-p272:64:64-i64:64-i128:128-f80:128-n8:16:32:64-S128"
target triple = "x86_64-pc-linux-gnu"

%"class.smt::theory" = type <{ ptr, i32, [4 x i8], ptr, ptr, %class.ptr_vector, %class.svector, i32, i8, [3 x i8] }>
%class.ptr_vector = type { %class.vector }
%class.vector = type { ptr }
%class.svector = type { %class.vector.0 }
%class.vector.0 = type { ptr }
%class.flet = type <{ ptr, i8, [7 x i8] }>

; Function Attrs: mustprogress nounwind uwtable
define linkonce_odr hidden void @_ZN4fletIbED2Ev(ptr noundef nonnull align 8 dereferenceable(9) %0) unnamed_addr #4 comdat align 2 {
  %2 = alloca ptr, align 8
  store ptr %0, ptr %2, align 8, !tbaa !53
  %3 = load ptr, ptr %2, align 8
  %4 = getelementptr inbounds nuw %class.flet, ptr %3, i32 0, i32 1
  %5 = load i8, ptr %4, align 8, !tbaa !57, !range !12, !noundef !13
  %6 = trunc i8 %5 to i1
  %7 = getelementptr inbounds nuw %class.flet, ptr %3, i32 0, i32 0
  %8 = load ptr, ptr %7, align 8, !tbaa !59
  %9 = zext i1 %6 to i8
  store i8 %9, ptr %8, align 1, !tbaa !10
  ret void
}

; Function Attrs: mustprogress nounwind uwtable
define linkonce_odr hidden void @_ZN4fletIbEC2ERbRKb(ptr noundef nonnull align 8 dereferenceable(9) %0, ptr noundef nonnull align 1 dereferenceable(1) %1, ptr noundef nonnull align 1 dereferenceable(1) %2) unnamed_addr #4 comdat align 2 {
  %4 = alloca ptr, align 8
  %5 = alloca ptr, align 8
  %6 = alloca ptr, align 8
  store ptr %0, ptr %4, align 8, !tbaa !53
  store ptr %1, ptr %5, align 8, !tbaa !55
  store ptr %2, ptr %6, align 8, !tbaa !55
  %7 = load ptr, ptr %4, align 8
  %8 = getelementptr inbounds nuw %class.flet, ptr %7, i32 0, i32 0
  %9 = load ptr, ptr %5, align 8, !tbaa !55
  store ptr %9, ptr %8, align 8, !tbaa !55
  %10 = getelementptr inbounds nuw %class.flet, ptr %7, i32 0, i32 1
  %11 = load ptr, ptr %5, align 8, !tbaa !55
  %12 = load i8, ptr %11, align 1, !tbaa !10, !range !12, !noundef !13
  %13 = trunc i8 %12 to i1
  %14 = zext i1 %13 to i8
  store i8 %14, ptr %10, align 8, !tbaa !57
  %15 = load ptr, ptr %6, align 8, !tbaa !55
  %16 = load i8, ptr %15, align 1, !tbaa !10, !range !12, !noundef !13
  %17 = trunc i8 %16 to i1
  %18 = getelementptr inbounds nuw %class.flet, ptr %7, i32 0, i32 0
  %19 = load ptr, ptr %18, align 8, !tbaa !59
  %20 = zext i1 %17 to i8
  store i8 %20, ptr %19, align 1, !tbaa !10
  ret void
}

; Function Attrs: mustprogress uwtable
define hidden void @_ZN3smt6theory10force_pushEv(ptr noundef nonnull align 8 dereferenceable(53) %0) #6 align 2 personality ptr @__gxx_personality_v0 {
  %2 = alloca ptr, align 8
  %3 = alloca %class.flet, align 8
  %4 = alloca i8, align 1
  %5 = alloca ptr, align 8
  %6 = alloca i32, align 4
  store ptr %0, ptr %2, align 8, !tbaa !28
  %7 = load ptr, ptr %2, align 8
  call void @llvm.lifetime.start.p0(i64 16, ptr %3) #3
  %8 = getelementptr inbounds nuw %"class.smt::theory", ptr %7, i32 0, i32 8
  call void @llvm.lifetime.start.p0(i64 1, ptr %4) #3
  store i8 0, ptr %4, align 1, !tbaa !10
  call void @_ZN4fletIbEC2ERbRKb(ptr noundef nonnull align 8 dereferenceable(9) %3, ptr noundef nonnull align 1 dereferenceable(1) %8, ptr noundef nonnull align 1 dereferenceable(1) %4)
  call void @llvm.lifetime.end.p0(i64 1, ptr %4) #3
  br label %9

9:                                                ; preds = %18, %1
  %10 = getelementptr inbounds nuw %"class.smt::theory", ptr %7, i32 0, i32 7
  %11 = load i32, ptr %10, align 8, !tbaa !48
  %12 = icmp ugt i32 %11, 0
  br i1 %12, label %13, label %26

13:                                               ; preds = %9
  %14 = load ptr, ptr %7, align 8, !tbaa !49
  %15 = getelementptr inbounds ptr, ptr %14, i64 12
  %16 = load ptr, ptr %15, align 8
  invoke void %16(ptr noundef nonnull align 8 dereferenceable(53) %7)
          to label %17 unwind label %22

17:                                               ; preds = %13
  br label %18

18:                                               ; preds = %17
  %19 = getelementptr inbounds nuw %"class.smt::theory", ptr %7, i32 0, i32 7
  %20 = load i32, ptr %19, align 8, !tbaa !48
  %21 = add i32 %20, -1
  store i32 %21, ptr %19, align 8, !tbaa !48
  br label %9, !llvm.loop !51

22:                                               ; preds = %13
  %23 = landingpad { ptr, i32 }
          cleanup
  %24 = extractvalue { ptr, i32 } %23, 0
  store ptr %24, ptr %5, align 8
  %25 = extractvalue { ptr, i32 } %23, 1
  store i32 %25, ptr %6, align 4
  call void @_ZN4fletIbED2Ev(ptr noundef nonnull align 8 dereferenceable(9) %3) #3
  call void @llvm.lifetime.end.p0(i64 16, ptr %3) #3
  br label %27

26:                                               ; preds = %9
  call void @_ZN4fletIbED2Ev(ptr noundef nonnull align 8 dereferenceable(9) %3) #3
  call void @llvm.lifetime.end.p0(i64 16, ptr %3) #3
  ret void

27:                                               ; preds = %22
  %28 = load ptr, ptr %5, align 8
  %29 = load i32, ptr %6, align 4
  %30 = insertvalue { ptr, i32 } poison, ptr %28, 0
  %31 = insertvalue { ptr, i32 } %30, i32 %29, 1
  resume { ptr, i32 } %31
}