; Function Attrs: mustprogress uwtable
define hidden void @_ZN3smt6theory10force_pushEv(ptr noundef nonnull align 8 dereferenceable(53) %0) local_unnamed_addr #5 align 2 personality ptr @__gxx_personality_v0 {
  %2 = getelementptr inbounds nuw i8, ptr %0, i64 52
  %3 = load i8, ptr %2, align 4, !tbaa !25, !range !22, !noundef !23
  store i8 0, ptr %2, align 4, !tbaa !25
  %4 = getelementptr inbounds nuw i8, ptr %0, i64 48
  %5 = load i32, ptr %4, align 8, !tbaa !24
  %.not4 = icmp eq i32 %5, 0
  br i1 %.not4, label %._crit_edge, label %.lr.ph

.lr.ph:                                           ; preds = %1, %9
  %6 = load ptr, ptr %0, align 8, !tbaa !26
  %7 = getelementptr inbounds nuw i8, ptr %6, i64 96
  %8 = load ptr, ptr %7, align 8
  invoke void %8(ptr noundef nonnull align 8 dereferenceable(53) %0)
          to label %9 unwind label %12

9:                                                ; preds = %.lr.ph
  %10 = load i32, ptr %4, align 8, !tbaa !24
  %11 = add i32 %10, -1
  store i32 %11, ptr %4, align 8, !tbaa !24
  %.not = icmp eq i32 %11, 0
  br i1 %.not, label %._crit_edge, label %.lr.ph, !llvm.loop !28

12:                                               ; preds = %.lr.ph
  %13 = landingpad { ptr, i32 }
          cleanup
  store i8 %3, ptr %2, align 4, !tbaa !25
  resume { ptr, i32 } %13

._crit_edge:                                      ; preds = %9, %1
  store i8 %3, ptr %2, align 4, !tbaa !25
  ret void
}